target datalayout = "e-m:e-p270:32:32-p271:32:32-p272:64:64-i64:64-i128:128-f80:128-n8:16:32:64-S128"
target triple = "x86_64-pc-linux-gnu"

%struct.TextureDSPContext = type { ptr, ptr, ptr, ptr, ptr, ptr, ptr, ptr, ptr, ptr, ptr, ptr, ptr, ptr, ptr }
%struct.AVCodecContext = type { ptr, i32, i32, ptr, i32, i32, ptr, ptr, ptr, i64, i32, i32, ptr, i32, %struct.AVRational, %struct.AVRational, %struct.AVRational, i32, i32, i32, i32, i32, %struct.AVRational, i32, i32, i32, i32, i32, i32, i32, i32, i32, i32, i32, ptr, ptr, i32, float, float, float, float, float, float, float, float, float, i32, i32, i32, i32, i32, i32, i32, i32, i32, i32, i32, i32, ptr, ptr, ptr, i32, i32, i32, i32, i32, i32, i32, i32, i32, i32, %struct.AVChannelLayout, i32, i32, i32, i32, i32, i32, i32, i32, ptr, i32, i32, i32, float, float, i32, i32, i32, i32, i32, ptr, i64, i64, float, float, i32, i32, ptr, ptr, i32, i32, i32, i32, i32, ptr, ptr, ptr, ptr, i32, i32, [8 x i64], i32, i32, i32, i32, i32, i32, i32, ptr, ptr, i32, i32, i32, i32, i32, i32, i32, i32, i32, i32, ptr, ptr, i32, i32, ptr, ptr, ptr, ptr, i32, i32, i64, i32, i32, i64, ptr, i64, ptr, i32, ptr, i32 }
%struct.AVRational = type { i32, i32 }
%struct.AVChannelLayout = type { i32, i32, %union.anon.0, ptr }
%union.anon.0 = type { i64 }
%struct.HapContext = type { ptr, %struct.GetByteContext, i32, i32, i32, i32, ptr, ptr, ptr, i64, i64, i32, i32, %struct.TextureDSPThreadContext, [2 x %struct.TextureDSPThreadContext] }
%struct.GetByteContext = type { ptr, ptr, ptr }
%struct.TextureDSPThreadContext = type { %union.anon.1, i64, i32, i32, %union.anon.2, i32, i32, i32, ptr }
%union.anon.1 = type { ptr }
%union.anon.2 = type { ptr }

@.str.2 = private unnamed_addr constant [27 x i8] c"Invalid video size %dx%d.\0A\00", align 1
@.str.3 = private unnamed_addr constant [5 x i8] c"DXT1\00", align 1
@.str.4 = private unnamed_addr constant [5 x i8] c"DXT5\00", align 1
@.str.5 = private unnamed_addr constant [18 x i8] c"DXT5-YCoCg-scaled\00", align 1
@.str.6 = private unnamed_addr constant [6 x i8] c"RGTC1\00", align 1
@.str.7 = private unnamed_addr constant [26 x i8] c"DXT5-YCoCg-scaled / RGTC1\00", align 1
@.str.8 = private unnamed_addr constant [12 x i8] c"%s texture\0A\00", align 1

; Function Attrs: alwaysinline nounwind willreturn memory(none) uwtable
define internal i32 @av_clip_c(i32 noundef %0, i32 noundef %1, i32 noundef %2) #4 {
  %4 = alloca i32, align 4
  %5 = alloca i32, align 4
  %6 = alloca i32, align 4
  %7 = alloca i32, align 4
  store i32 %0, ptr %5, align 4, !tbaa !33
  store i32 %1, ptr %6, align 4, !tbaa !33
  store i32 %2, ptr %7, align 4, !tbaa !33
  %8 = load i32, ptr %5, align 4, !tbaa !33
  %9 = load i32, ptr %6, align 4, !tbaa !33
  %10 = icmp slt i32 %8, %9
  br i1 %10, label %11, label %13

11:                                               ; preds = %3
  %12 = load i32, ptr %6, align 4, !tbaa !33
  store i32 %12, ptr %4, align 4
  br label %21

13:                                               ; preds = %3
  %14 = load i32, ptr %5, align 4, !tbaa !33
  %15 = load i32, ptr %7, align 4, !tbaa !33
  %16 = icmp sgt i32 %14, %15
  br i1 %16, label %17, label %19

17:                                               ; preds = %13
  %18 = load i32, ptr %7, align 4, !tbaa !33
  store i32 %18, ptr %4, align 4
  br label %21

19:                                               ; preds = %13
  %20 = load i32, ptr %5, align 4, !tbaa !33
  store i32 %20, ptr %4, align 4
  br label %21

21:                                               ; preds = %19, %17, %11
  %22 = load i32, ptr %4, align 4
  ret i32 %22
}

; Function Attrs: cold nounwind optsize uwtable
define internal i32 @hap_init(ptr noundef %0) #0 {
  %2 = alloca i32, align 4
  %3 = alloca ptr, align 8
  %4 = alloca ptr, align 8
  %5 = alloca %struct.TextureDSPContext, align 8
  %6 = alloca ptr, align 8
  %7 = alloca i32, align 4
  %8 = alloca i32, align 4
  store ptr %0, ptr %3, align 8, !tbaa !4
  call void @llvm.lifetime.start.p0(i64 8, ptr %4) #10
  %9 = load ptr, ptr %3, align 8, !tbaa !4
  %10 = getelementptr inbounds nuw %struct.AVCodecContext, ptr %9, i32 0, i32 6
  %11 = load ptr, ptr %10, align 8, !tbaa !9
  store ptr %11, ptr %4, align 8, !tbaa !29
  call void @llvm.lifetime.start.p0(i64 120, ptr %5) #10
  call void @llvm.lifetime.start.p0(i64 8, ptr %6) #10
  call void @llvm.lifetime.start.p0(i64 4, ptr %7) #10
  %12 = load ptr, ptr %3, align 8, !tbaa !4
  %13 = getelementptr inbounds nuw %struct.AVCodecContext, ptr %12, i32 0, i32 18
  %14 = load i32, ptr %13, align 8, !tbaa !31
  %15 = load ptr, ptr %3, align 8, !tbaa !4
  %16 = getelementptr inbounds nuw %struct.AVCodecContext, ptr %15, i32 0, i32 19
  %17 = load i32, ptr %16, align 4, !tbaa !32
  %18 = load ptr, ptr %3, align 8, !tbaa !4
  %19 = call i32 @av_image_check_size(i32 noundef %14, i32 noundef %17, i32 noundef 0, ptr noundef %18)
  store i32 %19, ptr %7, align 4, !tbaa !33
  %20 = load i32, ptr %7, align 4, !tbaa !33
  %21 = icmp slt i32 %20, 0
  br i1 %21, label %22, label %31

22:                                               ; preds = %1
  %23 = load ptr, ptr %3, align 8, !tbaa !4
  %24 = load ptr, ptr %3, align 8, !tbaa !4
  %25 = getelementptr inbounds nuw %struct.AVCodecContext, ptr %24, i32 0, i32 18
  %26 = load i32, ptr %25, align 8, !tbaa !31
  %27 = load ptr, ptr %3, align 8, !tbaa !4
  %28 = getelementptr inbounds nuw %struct.AVCodecContext, ptr %27, i32 0, i32 19
  %29 = load i32, ptr %28, align 4, !tbaa !32
  call void (ptr, i32, ptr, ...) @av_log(ptr noundef %23, i32 noundef 16, ptr noundef @.str.2, i32 noundef %26, i32 noundef %29)
  %30 = load i32, ptr %7, align 4, !tbaa !33
  store i32 %30, ptr %2, align 4
  store i32 1, ptr %8, align 4
  br label %167

31:                                               ; preds = %1
  %32 = load ptr, ptr %3, align 8, !tbaa !4
  %33 = getelementptr inbounds nuw %struct.AVCodecContext, ptr %32, i32 0, i32 18
  %34 = load i32, ptr %33, align 8, !tbaa !31
  %35 = add nsw i32 %34, 4
  %36 = sub nsw i32 %35, 1
  %37 = and i32 %36, -4
  %38 = load ptr, ptr %3, align 8, !tbaa !4
  %39 = getelementptr inbounds nuw %struct.AVCodecContext, ptr %38, i32 0, i32 20
  store i32 %37, ptr %39, align 8, !tbaa !34
  %40 = load ptr, ptr %3, align 8, !tbaa !4
  %41 = getelementptr inbounds nuw %struct.AVCodecContext, ptr %40, i32 0, i32 19
  %42 = load i32, ptr %41, align 4, !tbaa !32
  %43 = add nsw i32 %42, 4
  %44 = sub nsw i32 %43, 1
  %45 = and i32 %44, -4
  %46 = load ptr, ptr %3, align 8, !tbaa !4
  %47 = getelementptr inbounds nuw %struct.AVCodecContext, ptr %46, i32 0, i32 21
  store i32 %45, ptr %47, align 4, !tbaa !35
  call void @ff_texturedsp_init(ptr noundef %5)
  %48 = load ptr, ptr %4, align 8, !tbaa !29
  %49 = getelementptr inbounds nuw %struct.HapContext, ptr %48, i32 0, i32 11
  store i32 1, ptr %49, align 8, !tbaa !36
  %50 = load ptr, ptr %4, align 8, !tbaa !29
  %51 = getelementptr inbounds nuw %struct.HapContext, ptr %50, i32 0, i32 14
  %52 = getelementptr inbounds [2 x %struct.TextureDSPThreadContext], ptr %51, i64 0, i64 0
  %53 = getelementptr inbounds nuw %struct.TextureDSPThreadContext, ptr %52, i32 0, i32 6
  store i32 16, ptr %53, align 4, !tbaa !41
  %54 = load ptr, ptr %3, align 8, !tbaa !4
  %55 = getelementptr inbounds nuw %struct.AVCodecContext, ptr %54, i32 0, i32 116
  %56 = load i32, ptr %55, align 8, !tbaa !42
  %57 = load ptr, ptr %3, align 8, !tbaa !4
  %58 = getelementptr inbounds nuw %struct.AVCodecContext, ptr %57, i32 0, i32 21
  %59 = load i32, ptr %58, align 4, !tbaa !35
  %60 = sdiv i32 %59, 4
  %61 = call i32 @av_clip_c(i32 noundef %56, i32 noundef 1, i32 noundef %60) #11
  %62 = load ptr, ptr %4, align 8, !tbaa !29
  %63 = getelementptr inbounds nuw %struct.HapContext, ptr %62, i32 0, i32 14
  %64 = getelementptr inbounds [2 x %struct.TextureDSPThreadContext], ptr %63, i64 0, i64 0
  %65 = getelementptr inbounds nuw %struct.TextureDSPThreadContext, ptr %64, i32 0, i32 7
  store i32 %61, ptr %65, align 8, !tbaa !43
  %66 = load ptr, ptr %3, align 8, !tbaa !4
  %67 = getelementptr inbounds nuw %struct.AVCodecContext, ptr %66, i32 0, i32 5
  %68 = load i32, ptr %67, align 4, !tbaa !44
  switch i32 %68, label %163 [
    i32 829448520, label %69
    i32 896557384, label %82
    i32 1500537160, label %95
    i32 1097883976, label %108
    i32 1299210568, label %125
  ]

69:                                               ; preds = %31
  store ptr @.str.3, ptr %6, align 8, !tbaa !45
  %70 = load ptr, ptr %4, align 8, !tbaa !29
  %71 = getelementptr inbounds nuw %struct.HapContext, ptr %70, i32 0, i32 14
  %72 = getelementptr inbounds [2 x %struct.TextureDSPThreadContext], ptr %71, i64 0, i64 0
  %73 = getelementptr inbounds nuw %struct.TextureDSPThreadContext, ptr %72, i32 0, i32 5
  store i32 8, ptr %73, align 8, !tbaa !46
  %74 = getelementptr inbounds nuw %struct.TextureDSPContext, ptr %5, i32 0, i32 0
  %75 = load ptr, ptr %74, align 8, !tbaa !47
  %76 = load ptr, ptr %4, align 8, !tbaa !29
  %77 = getelementptr inbounds nuw %struct.HapContext, ptr %76, i32 0, i32 14
  %78 = getelementptr inbounds [2 x %struct.TextureDSPThreadContext], ptr %77, i64 0, i64 0
  %79 = getelementptr inbounds nuw %struct.TextureDSPThreadContext, ptr %78, i32 0, i32 8
  store ptr %75, ptr %79, align 8, !tbaa !49
  %80 = load ptr, ptr %3, align 8, !tbaa !4
  %81 = getelementptr inbounds nuw %struct.AVCodecContext, ptr %80, i32 0, i32 23
  store i32 119, ptr %81, align 8, !tbaa !50
  br label %164

82:                                               ; preds = %31
  store ptr @.str.4, ptr %6, align 8, !tbaa !45
  %83 = load ptr, ptr %4, align 8, !tbaa !29
  %84 = getelementptr inbounds nuw %struct.HapContext, ptr %83, i32 0, i32 14
  %85 = getelementptr inbounds [2 x %struct.TextureDSPThreadContext], ptr %84, i64 0, i64 0
  %86 = getelementptr inbounds nuw %struct.TextureDSPThreadContext, ptr %85, i32 0, i32 5
  store i32 16, ptr %86, align 8, !tbaa !46
  %87 = getelementptr inbounds nuw %struct.TextureDSPContext, ptr %5, i32 0, i32 5
  %88 = load ptr, ptr %87, align 8, !tbaa !51
  %89 = load ptr, ptr %4, align 8, !tbaa !29
  %90 = getelementptr inbounds nuw %struct.HapContext, ptr %89, i32 0, i32 14
  %91 = getelementptr inbounds [2 x %struct.TextureDSPThreadContext], ptr %90, i64 0, i64 0
  %92 = getelementptr inbounds nuw %struct.TextureDSPThreadContext, ptr %91, i32 0, i32 8
  store ptr %88, ptr %92, align 8, !tbaa !49
  %93 = load ptr, ptr %3, align 8, !tbaa !4
  %94 = getelementptr inbounds nuw %struct.AVCodecContext, ptr %93, i32 0, i32 23
  store i32 26, ptr %94, align 8, !tbaa !50
  br label %164

95:                                               ; preds = %31
  store ptr @.str.5, ptr %6, align 8, !tbaa !45
  %96 = load ptr, ptr %4, align 8, !tbaa !29
  %97 = getelementptr inbounds nuw %struct.HapContext, ptr %96, i32 0, i32 14
  %98 = getelementptr inbounds [2 x %struct.TextureDSPThreadContext], ptr %97, i64 0, i64 0
  %99 = getelementptr inbounds nuw %struct.TextureDSPThreadContext, ptr %98, i32 0, i32 5
  store i32 16, ptr %99, align 8, !tbaa !46
  %100 = getelementptr inbounds nuw %struct.TextureDSPContext, ptr %5, i32 0, i32 7
  %101 = load ptr, ptr %100, align 8, !tbaa !52
  %102 = load ptr, ptr %4, align 8, !tbaa !29
  %103 = getelementptr inbounds nuw %struct.HapContext, ptr %102, i32 0, i32 14
  %104 = getelementptr inbounds [2 x %struct.TextureDSPThreadContext], ptr %103, i64 0, i64 0
  %105 = getelementptr inbounds nuw %struct.TextureDSPThreadContext, ptr %104, i32 0, i32 8
  store ptr %101, ptr %105, align 8, !tbaa !49
  %106 = load ptr, ptr %3, align 8, !tbaa !4
  %107 = getelementptr inbounds nuw %struct.AVCodecContext, ptr %106, i32 0, i32 23
  store i32 119, ptr %107, align 8, !tbaa !50
  br label %164

108:                                              ; preds = %31
  store ptr @.str.6, ptr %6, align 8, !tbaa !45
  %109 = load ptr, ptr %4, align 8, !tbaa !29
  %110 = getelementptr inbounds nuw %struct.HapContext, ptr %109, i32 0, i32 14
  %111 = getelementptr inbounds [2 x %struct.TextureDSPThreadContext], ptr %110, i64 0, i64 0
  %112 = getelementptr inbounds nuw %struct.TextureDSPThreadContext, ptr %111, i32 0, i32 5
  store i32 8, ptr %112, align 8, !tbaa !46
  %113 = getelementptr inbounds nuw %struct.TextureDSPContext, ptr %5, i32 0, i32 10
  %114 = load ptr, ptr %113, align 8, !tbaa !53
  %115 = load ptr, ptr %4, align 8, !tbaa !29
  %116 = getelementptr inbounds nuw %struct.HapContext, ptr %115, i32 0, i32 14
  %117 = getelementptr inbounds [2 x %struct.TextureDSPThreadContext], ptr %116, i64 0, i64 0
  %118 = getelementptr inbounds nuw %struct.TextureDSPThreadContext, ptr %117, i32 0, i32 8
  store ptr %114, ptr %118, align 8, !tbaa !49
  %119 = load ptr, ptr %4, align 8, !tbaa !29
  %120 = getelementptr inbounds nuw %struct.HapContext, ptr %119, i32 0, i32 14
  %121 = getelementptr inbounds [2 x %struct.TextureDSPThreadContext], ptr %120, i64 0, i64 0
  %122 = getelementptr inbounds nuw %struct.TextureDSPThreadContext, ptr %121, i32 0, i32 6
  store i32 4, ptr %122, align 4, !tbaa !41
  %123 = load ptr, ptr %3, align 8, !tbaa !4
  %124 = getelementptr inbounds nuw %struct.AVCodecContext, ptr %123, i32 0, i32 23
  store i32 8, ptr %124, align 8, !tbaa !50
  br label %164

125:                                              ; preds = %31
  store ptr @.str.7, ptr %6, align 8, !tbaa !45
  %126 = load ptr, ptr %4, align 8, !tbaa !29
  %127 = getelementptr inbounds nuw %struct.HapContext, ptr %126, i32 0, i32 14
  %128 = getelementptr inbounds [2 x %struct.TextureDSPThreadContext], ptr %127, i64 0, i64 0
  %129 = getelementptr inbounds nuw %struct.TextureDSPThreadContext, ptr %128, i32 0, i32 5
  store i32 16, ptr %129, align 8, !tbaa !46
  %130 = load ptr, ptr %4, align 8, !tbaa !29
  %131 = getelementptr inbounds nuw %struct.HapContext, ptr %130, i32 0, i32 14
  %132 = getelementptr inbounds [2 x %struct.TextureDSPThreadContext], ptr %131, i64 0, i64 1
  %133 = getelementptr inbounds nuw %struct.TextureDSPThreadContext, ptr %132, i32 0, i32 5
  store i32 8, ptr %133, align 8, !tbaa !46
  %134 = getelementptr inbounds nuw %struct.TextureDSPContext, ptr %5, i32 0, i32 7
  %135 = load ptr, ptr %134, align 8, !tbaa !52
  %136 = load ptr, ptr %4, align 8, !tbaa !29
  %137 = getelementptr inbounds nuw %struct.HapContext, ptr %136, i32 0, i32 14
  %138 = getelementptr inbounds [2 x %struct.TextureDSPThreadContext], ptr %137, i64 0, i64 0
  %139 = getelementptr inbounds nuw %struct.TextureDSPThreadContext, ptr %138, i32 0, i32 8
  store ptr %135, ptr %139, align 8, !tbaa !49
  %140 = getelementptr inbounds nuw %struct.TextureDSPContext, ptr %5, i32 0, i32 11
  %141 = load ptr, ptr %140, align 8, !tbaa !54
  %142 = load ptr, ptr %4, align 8, !tbaa !29
  %143 = getelementptr inbounds nuw %struct.HapContext, ptr %142, i32 0, i32 14
  %144 = getelementptr inbounds [2 x %struct.TextureDSPThreadContext], ptr %143, i64 0, i64 1
  %145 = getelementptr inbounds nuw %struct.TextureDSPThreadContext, ptr %144, i32 0, i32 8
  store ptr %141, ptr %145, align 8, !tbaa !49
  %146 = load ptr, ptr %4, align 8, !tbaa !29
  %147 = getelementptr inbounds nuw %struct.HapContext, ptr %146, i32 0, i32 14
  %148 = getelementptr inbounds [2 x %struct.TextureDSPThreadContext], ptr %147, i64 0, i64 1
  %149 = getelementptr inbounds nuw %struct.TextureDSPThreadContext, ptr %148, i32 0, i32 6
  store i32 16, ptr %149, align 4, !tbaa !41
  %150 = load ptr, ptr %4, align 8, !tbaa !29
  %151 = getelementptr inbounds nuw %struct.HapContext, ptr %150, i32 0, i32 14
  %152 = getelementptr inbounds [2 x %struct.TextureDSPThreadContext], ptr %151, i64 0, i64 0
  %153 = getelementptr inbounds nuw %struct.TextureDSPThreadContext, ptr %152, i32 0, i32 7
  %154 = load i32, ptr %153, align 8, !tbaa !43
  %155 = load ptr, ptr %4, align 8, !tbaa !29
  %156 = getelementptr inbounds nuw %struct.HapContext, ptr %155, i32 0, i32 14
  %157 = getelementptr inbounds [2 x %struct.TextureDSPThreadContext], ptr %156, i64 0, i64 1
  %158 = getelementptr inbounds nuw %struct.TextureDSPThreadContext, ptr %157, i32 0, i32 7
  store i32 %154, ptr %158, align 8, !tbaa !43
  %159 = load ptr, ptr %3, align 8, !tbaa !4
  %160 = getelementptr inbounds nuw %struct.AVCodecContext, ptr %159, i32 0, i32 23
  store i32 26, ptr %160, align 8, !tbaa !50
  %161 = load ptr, ptr %4, align 8, !tbaa !29
  %162 = getelementptr inbounds nuw %struct.HapContext, ptr %161, i32 0, i32 11
  store i32 2, ptr %162, align 8, !tbaa !36
  br label %164

163:                                              ; preds = %31
  store i32 -1128613112, ptr %2, align 4
  store i32 1, ptr %8, align 4
  br label %167

164:                                              ; preds = %125, %108, %95, %82, %69
  %165 = load ptr, ptr %3, align 8, !tbaa !4
  %166 = load ptr, ptr %6, align 8, !tbaa !45
  call void (ptr, i32, ptr, ...) @av_log(ptr noundef %165, i32 noundef 48, ptr noundef @.str.8, ptr noundef %166)
  store i32 0, ptr %2, align 4
  store i32 1, ptr %8, align 4
  br label %167

167:                                              ; preds = %164, %163, %22
  call void @llvm.lifetime.end.p0(i64 4, ptr %7) #10
  call void @llvm.lifetime.end.p0(i64 8, ptr %6) #10
  call void @llvm.lifetime.end.p0(i64 120, ptr %5) #10
  call void @llvm.lifetime.end.p0(i64 8, ptr %4) #10
  %168 = load i32, ptr %2, align 4
  ret i32 %168
}