; Function Attrs: cold nounwind optsize uwtable
define internal range(i32 -2147483648, 1) i32 @hap_init(ptr noundef %0) #0 {
  %2 = alloca %struct.TextureDSPContext, align 8
  %3 = getelementptr inbounds nuw i8, ptr %0, i64 32
  %4 = load ptr, ptr %3, align 8, !tbaa !4
  call void @llvm.lifetime.start.p0(i64 120, ptr nonnull %2) #9
  %5 = getelementptr inbounds nuw i8, ptr %0, i64 112
  %6 = load i32, ptr %5, align 8, !tbaa !27
  %7 = getelementptr inbounds nuw i8, ptr %0, i64 116
  %8 = load i32, ptr %7, align 4, !tbaa !28
  %9 = tail call i32 @av_image_check_size(i32 noundef %6, i32 noundef %8, i32 noundef 0, ptr noundef %0) #9
  %10 = icmp slt i32 %9, 0
  %11 = load i32, ptr %5, align 8, !tbaa !27
  br i1 %10, label %12, label %14

12:                                               ; preds = %1
  %13 = load i32, ptr %7, align 4, !tbaa !28
  tail call void (ptr, i32, ptr, ...) @av_log(ptr noundef nonnull %0, i32 noundef 16, ptr noundef nonnull @.str.2, i32 noundef %11, i32 noundef %13) #9
  br label %70

14:                                               ; preds = %1
  %15 = add nsw i32 %11, 3
  %16 = and i32 %15, -4
  %17 = getelementptr inbounds nuw i8, ptr %0, i64 120
  store i32 %16, ptr %17, align 8, !tbaa !29
  %18 = load i32, ptr %7, align 4, !tbaa !28
  %19 = add nsw i32 %18, 3
  %20 = and i32 %19, -4
  %21 = getelementptr inbounds nuw i8, ptr %0, i64 124
  store i32 %20, ptr %21, align 4, !tbaa !30
  call void @ff_texturedsp_init(ptr noundef nonnull %2) #9
  %22 = getelementptr inbounds nuw i8, ptr %4, i64 88
  store i32 1, ptr %22, align 8, !tbaa !31
  %23 = getelementptr inbounds nuw i8, ptr %4, i64 188
  store i32 16, ptr %23, align 4, !tbaa !36
  %24 = getelementptr inbounds nuw i8, ptr %0, i64 656
  %25 = load i32, ptr %24, align 8, !tbaa !37
  %26 = load i32, ptr %21, align 4, !tbaa !30
  %27 = sdiv i32 %26, 4
  %28 = icmp slt i32 %25, 1
  %..i = call i32 @llvm.smin.i32(i32 %25, i32 %27)
  %.0.i = select i1 %28, i32 1, i32 %..i
  %29 = getelementptr inbounds nuw i8, ptr %4, i64 192
  store i32 %.0.i, ptr %29, align 8, !tbaa !38
  %30 = getelementptr inbounds nuw i8, ptr %0, i64 28
  %31 = load i32, ptr %30, align 4, !tbaa !39
  %32 = add i32 %31, -829448520
  %33 = call i32 @llvm.fshl.i32(i32 %32, i32 %32, i32 6)
  switch i32 %33, label %70 [
    i32 0, label %34
    i32 1, label %39
    i32 10, label %45
    i32 4, label %51
    i32 7, label %57
  ]

34:                                               ; preds = %14
  %35 = getelementptr inbounds nuw i8, ptr %4, i64 184
  store i32 8, ptr %35, align 8, !tbaa !40
  %36 = load ptr, ptr %2, align 8, !tbaa !41
  %37 = getelementptr inbounds nuw i8, ptr %4, i64 200
  store ptr %36, ptr %37, align 8, !tbaa !43
  %38 = getelementptr inbounds nuw i8, ptr %0, i64 136
  store i32 119, ptr %38, align 8, !tbaa !44
  br label %69

39:                                               ; preds = %14
  %40 = getelementptr inbounds nuw i8, ptr %4, i64 184
  store i32 16, ptr %40, align 8, !tbaa !40
  %41 = getelementptr inbounds nuw i8, ptr %2, i64 40
  %42 = load ptr, ptr %41, align 8, !tbaa !45
  %43 = getelementptr inbounds nuw i8, ptr %4, i64 200
  store ptr %42, ptr %43, align 8, !tbaa !43
  %44 = getelementptr inbounds nuw i8, ptr %0, i64 136
  store i32 26, ptr %44, align 8, !tbaa !44
  br label %69

45:                                               ; preds = %14
  %46 = getelementptr inbounds nuw i8, ptr %4, i64 184
  store i32 16, ptr %46, align 8, !tbaa !40
  %47 = getelementptr inbounds nuw i8, ptr %2, i64 56
  %48 = load ptr, ptr %47, align 8, !tbaa !46
  %49 = getelementptr inbounds nuw i8, ptr %4, i64 200
  store ptr %48, ptr %49, align 8, !tbaa !43
  %50 = getelementptr inbounds nuw i8, ptr %0, i64 136
  store i32 119, ptr %50, align 8, !tbaa !44
  br label %69

51:                                               ; preds = %14
  %52 = getelementptr inbounds nuw i8, ptr %4, i64 184
  store i32 8, ptr %52, align 8, !tbaa !40
  %53 = getelementptr inbounds nuw i8, ptr %2, i64 80
  %54 = load ptr, ptr %53, align 8, !tbaa !47
  %55 = getelementptr inbounds nuw i8, ptr %4, i64 200
  store ptr %54, ptr %55, align 8, !tbaa !43
  store i32 4, ptr %23, align 4, !tbaa !36
  %56 = getelementptr inbounds nuw i8, ptr %0, i64 136
  store i32 8, ptr %56, align 8, !tbaa !44
  br label %69

57:                                               ; preds = %14
  %58 = getelementptr inbounds nuw i8, ptr %4, i64 184
  store i32 16, ptr %58, align 8, !tbaa !40
  %59 = getelementptr inbounds nuw i8, ptr %4, i64 240
  store i32 8, ptr %59, align 8, !tbaa !40
  %60 = getelementptr inbounds nuw i8, ptr %2, i64 56
  %61 = load ptr, ptr %60, align 8, !tbaa !46
  %62 = getelementptr inbounds nuw i8, ptr %4, i64 200
  store ptr %61, ptr %62, align 8, !tbaa !43
  %63 = getelementptr inbounds nuw i8, ptr %2, i64 88
  %64 = load ptr, ptr %63, align 8, !tbaa !48
  %65 = getelementptr inbounds nuw i8, ptr %4, i64 256
  store ptr %64, ptr %65, align 8, !tbaa !43
  %66 = getelementptr inbounds nuw i8, ptr %4, i64 244
  store i32 16, ptr %66, align 4, !tbaa !36
  %67 = getelementptr inbounds nuw i8, ptr %4, i64 248
  store i32 %.0.i, ptr %67, align 8, !tbaa !38
  %68 = getelementptr inbounds nuw i8, ptr %0, i64 136
  store i32 26, ptr %68, align 8, !tbaa !44
  store i32 2, ptr %22, align 8, !tbaa !31
  br label %69

69:                                               ; preds = %57, %51, %45, %39, %34
  %.043 = phi ptr [ @.str.7, %57 ], [ @.str.6, %51 ], [ @.str.5, %45 ], [ @.str.4, %39 ], [ @.str.3, %34 ]
  call void (ptr, i32, ptr, ...) @av_log(ptr noundef nonnull %0, i32 noundef 48, ptr noundef nonnull @.str.8, ptr noundef nonnull %.043) #9
  br label %70

70:                                               ; preds = %14, %69, %12
  %.0 = phi i32 [ %9, %12 ], [ 0, %69 ], [ -1128613112, %14 ]
  call void @llvm.lifetime.end.p0(i64 120, ptr nonnull %2) #9
  ret i32 %.0
}